; Function Attrs: nounwind uwtable
define internal void @mycon(ptr noundef initializes((168, 180), (184, 248)) %0) #0 {
  %2 = load i32, ptr @pmix_class_init_epoch, align 4, !tbaa !35
  %3 = load i32, ptr getelementptr inbounds nuw (i8, ptr @pmix_mutex_t_class, i64 32), align 8, !tbaa !36
  %.not = icmp eq i32 %2, %3
  br i1 %.not, label %5, label %4

4:                                                ; preds = %1
  tail call void @pmix_class_initialize(ptr noundef nonnull @pmix_mutex_t_class) #11
  br label %5

5:                                                ; preds = %4, %1
  %6 = getelementptr inbounds nuw i8, ptr %0, i64 128
  %7 = getelementptr inbounds nuw i8, ptr %0, i64 168
  store ptr @pmix_mutex_t_class, ptr %7, align 8, !tbaa !37
  %8 = getelementptr inbounds nuw i8, ptr %0, i64 176
  store i32 1, ptr %8, align 8, !tbaa !38
  %9 = getelementptr inbounds nuw i8, ptr %0, i64 184
  tail call void @llvm.memset.p0.i64(ptr noundef nonnull align 8 dereferenceable(64) %9, i8 0, i64 64, i1 false)
  %10 = load ptr, ptr getelementptr inbounds nuw (i8, ptr @pmix_mutex_t_class, i64 40), align 8, !tbaa !39
  %11 = load ptr, ptr %10, align 8, !tbaa !40
  %.not6.i = icmp eq ptr %11, null
  br i1 %.not6.i, label %pmix_obj_run_constructors.exit, label %.lr.ph.i

.lr.ph.i:                                         ; preds = %5, %.lr.ph.i
  %12 = phi ptr [ %14, %.lr.ph.i ], [ %11, %5 ]
  %.07.i = phi ptr [ %13, %.lr.ph.i ], [ %10, %5 ]
  tail call void %12(ptr noundef nonnull %6) #11
  %13 = getelementptr inbounds nuw i8, ptr %.07.i, i64 8
  %14 = load ptr, ptr %13, align 8, !tbaa !40
  %.not.i = icmp eq ptr %14, null
  br i1 %.not.i, label %pmix_obj_run_constructors.exit, label %.lr.ph.i, !llvm.loop !41

pmix_obj_run_constructors.exit:                   ; preds = %.lr.ph.i, %5
  %15 = getelementptr inbounds nuw i8, ptr %0, i64 288
  %16 = tail call i32 @pthread_cond_init(ptr noundef nonnull %15, ptr noundef null) #11
  %17 = getelementptr inbounds nuw i8, ptr %0, i64 336
  store volatile i8 1, ptr %17, align 8, !tbaa !71
  store volatile i8 0, ptr %17, align 8, !tbaa !71
  %18 = getelementptr inbounds nuw i8, ptr %0, i64 344
  store i64 0, ptr %18, align 8, !tbaa !74
  %19 = getelementptr inbounds nuw i8, ptr %0, i64 352
  store i32 -64, ptr %19, align 8, !tbaa !75
  %20 = getelementptr inbounds nuw i8, ptr %0, i64 360
  tail call void @llvm.memset.p0.i64(ptr noundef nonnull align 8 dereferenceable(16) %20, i8 0, i64 16, i1 false)
  ret void
}